; Function Attrs: mustprogress nounwind uwtable
define hidden void @_ZN2cv16VideoInputStreamD2Ev(ptr noundef nonnull align 8 dereferenceable(560) %0) unnamed_addr #5 align 2 personality ptr @__gxx_personality_v0 {
  %2 = getelementptr inbounds nuw i8, ptr %0, i64 120
  %3 = tail call noundef zeroext i1 @_ZNKSt12__basic_fileIcE7is_openEv(ptr noundef nonnull readonly align 8 dereferenceable(9) %2) #29
  br i1 %3, label %4, label %_ZN2cv16VideoInputStream5closeEv.exit

4:                                                ; preds = %1
  %5 = getelementptr inbounds nuw i8, ptr %0, i64 520
  store i8 0, ptr %5, align 8, !tbaa !3
  %6 = getelementptr inbounds nuw i8, ptr %0, i64 16
  %7 = invoke noundef ptr @_ZNSt13basic_filebufIcSt11char_traitsIcEE5closeEv(ptr noundef nonnull align 8 dereferenceable(240) %6)
          to label %.noexc unwind label %36

.noexc:                                           ; preds = %4
  %.not.i.i = icmp eq ptr %7, null
  br i1 %.not.i.i, label %8, label %_ZN2cv16VideoInputStream5closeEv.exit

8:                                                ; preds = %.noexc
  %9 = load ptr, ptr %0, align 8, !tbaa !29
  %10 = getelementptr i8, ptr %9, i64 -24
  %11 = load i64, ptr %10, align 8
  %12 = getelementptr inbounds i8, ptr %0, i64 %11
  %13 = getelementptr inbounds nuw i8, ptr %12, i64 32
  %14 = load i32, ptr %13, align 8, !tbaa !31
  %15 = or i32 %14, 4
  invoke void @_ZNSt9basic_iosIcSt11char_traitsIcEE5clearESt12_Ios_Iostate(ptr noundef nonnull align 8 dereferenceable(264) %12, i32 noundef %15)
          to label %_ZN2cv16VideoInputStream5closeEv.exit unwind label %36

_ZN2cv16VideoInputStream5closeEv.exit:            ; preds = %.noexc, %1, %8
  %16 = getelementptr inbounds nuw i8, ptr %0, i64 528
  %17 = load ptr, ptr %16, align 8, !tbaa !28
  %18 = getelementptr inbounds nuw i8, ptr %0, i64 544
  %19 = icmp eq ptr %17, %18
  br i1 %19, label %_ZNKSt7__cxx1112basic_stringIcSt11char_traitsIcESaIcEE11_M_is_localEv.exit.thread.i.i, label %_ZNKSt7__cxx1112basic_stringIcSt11char_traitsIcESaIcEE11_M_is_localEv.exit.i.i

_ZNKSt7__cxx1112basic_stringIcSt11char_traitsIcESaIcEE11_M_is_localEv.exit.thread.i.i: ; preds = %_ZN2cv16VideoInputStream5closeEv.exit
  %20 = getelementptr inbounds nuw i8, ptr %0, i64 536
  %21 = load i64, ptr %20, align 8, !tbaa !26
  %22 = icmp ult i64 %21, 16
  tail call void @llvm.assume(i1 %22)
  br label %_ZNSt7__cxx1112basic_stringIcSt11char_traitsIcESaIcEED2Ev.exit

_ZNKSt7__cxx1112basic_stringIcSt11char_traitsIcESaIcEE11_M_is_localEv.exit.i.i: ; preds = %_ZN2cv16VideoInputStream5closeEv.exit
  tail call void @_ZdlPv(ptr noundef %17) #27
  br label %_ZNSt7__cxx1112basic_stringIcSt11char_traitsIcESaIcEED2Ev.exit

_ZNSt7__cxx1112basic_stringIcSt11char_traitsIcESaIcEED2Ev.exit: ; preds = %_ZNKSt7__cxx1112basic_stringIcSt11char_traitsIcESaIcEE11_M_is_localEv.exit.thread.i.i, %_ZNKSt7__cxx1112basic_stringIcSt11char_traitsIcESaIcEE11_M_is_localEv.exit.i.i
  %23 = load ptr, ptr @_ZTTSt14basic_ifstreamIcSt11char_traitsIcEE, align 8
  store ptr %23, ptr %0, align 8, !tbaa !29
  %24 = load ptr, ptr getelementptr inbounds nuw (i8, ptr @_ZTTSt14basic_ifstreamIcSt11char_traitsIcEE, i64 24), align 8
  %25 = getelementptr i8, ptr %23, i64 -24
  %26 = load i64, ptr %25, align 8
  %27 = getelementptr inbounds i8, ptr %0, i64 %26
  store ptr %24, ptr %27, align 8, !tbaa !29
  %28 = getelementptr inbounds nuw i8, ptr %0, i64 16
  tail call void @_ZNSt13basic_filebufIcSt11char_traitsIcEED2Ev(ptr noundef nonnull align 8 dereferenceable(240) %28) #28
  %29 = load ptr, ptr getelementptr inbounds nuw (i8, ptr @_ZTTSt14basic_ifstreamIcSt11char_traitsIcEE, i64 8), align 8
  store ptr %29, ptr %0, align 8, !tbaa !29
  %30 = load ptr, ptr getelementptr inbounds nuw (i8, ptr @_ZTTSt14basic_ifstreamIcSt11char_traitsIcEE, i64 16), align 8
  %31 = getelementptr i8, ptr %29, i64 -24
  %32 = load i64, ptr %31, align 8
  %33 = getelementptr inbounds i8, ptr %0, i64 %32
  store ptr %30, ptr %33, align 8, !tbaa !29
  %34 = getelementptr inbounds nuw i8, ptr %0, i64 8
  store i64 0, ptr %34, align 8, !tbaa !38
  %35 = getelementptr inbounds nuw i8, ptr %0, i64 256
  tail call void @_ZNSt8ios_baseD2Ev(ptr noundef nonnull align 8 dereferenceable(264) %35) #28
  ret void

36:                                               ; preds = %8, %4
  %37 = landingpad { ptr, i32 }
          filter [0 x ptr] zeroinitializer
  %38 = extractvalue { ptr, i32 } %37, 0
  %39 = getelementptr inbounds nuw i8, ptr %0, i64 528
  tail call void @_ZNSt7__cxx1112basic_stringIcSt11char_traitsIcESaIcEED2Ev(ptr noundef nonnull align 8 dereferenceable(32) %39) #28
  tail call void @_ZNSt14basic_ifstreamIcSt11char_traitsIcEED1Ev(ptr noundef nonnull align 8 dereferenceable(256) %0) #28
  tail call void @__cxa_call_unexpected(ptr %38) #31
  unreachable
}